; Function Attrs: mustprogress uwtable
define internal void @_ZZN3euf10completion13set_canonicalEPNS_5enodeEP4exprEN6vtrail4undoEv(ptr nocapture noundef nonnull align 8 dereferenceable(40) %this) unnamed_addr #3 align 2 {
entry:
  %old_value = getelementptr inbounds i8, ptr %this, i64 24
  %0 = load ptr, ptr %old_value, align 8
  %c = getelementptr inbounds i8, ptr %this, i64 8
  %1 = load ptr, ptr %c, align 8
  %idx = getelementptr inbounds i8, ptr %this, i64 16
  %2 = load i32, ptr %idx, align 8
  %m_nodes.i = getelementptr inbounds i8, ptr %1, i64 8
  %3 = load ptr, ptr %m_nodes.i, align 8
  %idxprom.i.i = zext i32 %2 to i64
  %arrayidx.i.i = getelementptr inbounds ptr, ptr %3, i64 %idxprom.i.i
  %4 = load ptr, ptr %1, align 8
  %tobool.not.i.i = icmp eq ptr %0, null
  br i1 %tobool.not.i.i, label %_ZN11ast_manager7inc_refEP3ast.exit.i, label %if.then.i.i

if.then.i.i:                                      ; preds = %entry
  %m_ref_count.i.i.i = getelementptr inbounds i8, ptr %0, i64 8
  %5 = load i32, ptr %m_ref_count.i.i.i, align 4
  %inc.i.i.i = add i32 %5, 1
  store i32 %inc.i.i.i, ptr %m_ref_count.i.i.i, align 4
  br label %_ZN11ast_manager7inc_refEP3ast.exit.i

_ZN11ast_manager7inc_refEP3ast.exit.i:            ; preds = %if.then.i.i, %entry
  %6 = load ptr, ptr %arrayidx.i.i, align 8
  %tobool.not.i2.i = icmp eq ptr %6, null
  br i1 %tobool.not.i2.i, label %_ZN10ref_vectorI4expr11ast_managerE11element_refaSEPS0_.exit, label %if.then.i3.i

if.then.i3.i:                                     ; preds = %_ZN11ast_manager7inc_refEP3ast.exit.i
  %m_ref_count.i.i4.i = getelementptr inbounds i8, ptr %6, i64 8
  %7 = load i32, ptr %m_ref_count.i.i4.i, align 4
  %dec.i.i.i = add i32 %7, -1
  store i32 %dec.i.i.i, ptr %m_ref_count.i.i4.i, align 4
  %cmp.i.i = icmp eq i32 %dec.i.i.i, 0
  br i1 %cmp.i.i, label %if.then2.i.i, label %_ZN10ref_vectorI4expr11ast_managerE11element_refaSEPS0_.exit

if.then2.i.i:                                     ; preds = %if.then.i3.i
  tail call void @_ZN11ast_manager11delete_nodeEP3ast(ptr noundef nonnull align 8 dereferenceable(976) %4, ptr noundef nonnull %6)
  br label %_ZN10ref_vectorI4expr11ast_managerE11element_refaSEPS0_.exit

_ZN10ref_vectorI4expr11ast_managerE11element_refaSEPS0_.exit: ; preds = %_ZN11ast_manager7inc_refEP3ast.exit.i, %if.then.i3.i, %if.then2.i.i
  store ptr %0, ptr %arrayidx.i.i, align 8
  %8 = load ptr, ptr %old_value, align 8
  %tobool.not.i3.i = icmp eq ptr %8, null
  br i1 %tobool.not.i3.i, label %_ZN7obj_refI4expr11ast_managerEaSEPS0_.exit, label %if.then.i.i.i

if.then.i.i.i:                                    ; preds = %_ZN10ref_vectorI4expr11ast_managerE11element_refaSEPS0_.exit
  %m_manager.i.i = getelementptr inbounds i8, ptr %this, i64 32
  %9 = load ptr, ptr %m_manager.i.i, align 8
  %m_ref_count.i.i.i.i = getelementptr inbounds i8, ptr %8, i64 8
  %10 = load i32, ptr %m_ref_count.i.i.i.i, align 4
  %dec.i.i.i.i = add i32 %10, -1
  store i32 %dec.i.i.i.i, ptr %m_ref_count.i.i.i.i, align 4
  %cmp.i.i.i = icmp eq i32 %dec.i.i.i.i, 0
  br i1 %cmp.i.i.i, label %if.then2.i.i.i, label %_ZN7obj_refI4expr11ast_managerEaSEPS0_.exit

if.then2.i.i.i:                                   ; preds = %if.then.i.i.i
  tail call void @_ZN11ast_manager11delete_nodeEP3ast(ptr noundef nonnull align 8 dereferenceable(976) %9, ptr noundef nonnull %8)
  br label %_ZN7obj_refI4expr11ast_managerEaSEPS0_.exit

_ZN7obj_refI4expr11ast_managerEaSEPS0_.exit:      ; preds = %_ZN10ref_vectorI4expr11ast_managerE11element_refaSEPS0_.exit, %if.then.i.i.i, %if.then2.i.i.i
  store ptr null, ptr %old_value, align 8
  ret void
}